target datalayout = "e-m:e-p270:32:32-p271:32:32-p272:64:64-i64:64-i128:128-f80:128-n8:16:32:64-S128"
target triple = "x86_64-pc-linux-gnu"

%union.av_intfloat32 = type { i32 }
%struct.Half2FloatTables = type { [3072 x i32], [64 x i32], [64 x i16] }

; Function Attrs: alwaysinline nounwind willreturn memory(none) uwtable
define internal float @av_clipf_c(float noundef %0, float noundef %1, float noundef %2) #4 {
  %4 = alloca float, align 4
  %5 = alloca float, align 4
  %6 = alloca float, align 4
  store float %0, ptr %4, align 4, !tbaa !135
  store float %1, ptr %5, align 4, !tbaa !135
  store float %2, ptr %6, align 4, !tbaa !135
  %7 = load float, ptr %4, align 4, !tbaa !135
  %8 = load float, ptr %5, align 4, !tbaa !135
  %9 = fcmp nsz ogt float %7, %8
  br i1 %9, label %10, label %12

10:                                               ; preds = %3
  %11 = load float, ptr %4, align 4, !tbaa !135
  br label %14

12:                                               ; preds = %3
  %13 = load float, ptr %5, align 4, !tbaa !135
  br label %14

14:                                               ; preds = %12, %10
  %15 = phi nsz float [ %11, %10 ], [ %13, %12 ]
  %16 = load float, ptr %6, align 4, !tbaa !135
  %17 = fcmp nsz ogt float %15, %16
  br i1 %17, label %18, label %20

18:                                               ; preds = %14
  %19 = load float, ptr %6, align 4, !tbaa !135
  br label %30

20:                                               ; preds = %14
  %21 = load float, ptr %4, align 4, !tbaa !135
  %22 = load float, ptr %5, align 4, !tbaa !135
  %23 = fcmp nsz ogt float %21, %22
  br i1 %23, label %24, label %26

24:                                               ; preds = %20
  %25 = load float, ptr %4, align 4, !tbaa !135
  br label %28

26:                                               ; preds = %20
  %27 = load float, ptr %5, align 4, !tbaa !135
  br label %28

28:                                               ; preds = %26, %24
  %29 = phi nsz float [ %25, %24 ], [ %27, %26 ]
  br label %30

30:                                               ; preds = %28, %18
  %31 = phi nsz float [ %19, %18 ], [ %29, %28 ]
  ret float %31
}

; Function Attrs: alwaysinline nounwind uwtable
define internal float @av_int2float(i32 noundef %0) #3 {
  %2 = alloca i32, align 4
  %3 = alloca %union.av_intfloat32, align 4
  store i32 %0, ptr %2, align 4, !tbaa !30
  call void @llvm.lifetime.start.p0(i64 4, ptr %3) #9
  %4 = load i32, ptr %2, align 4, !tbaa !30
  store i32 %4, ptr %3, align 4, !tbaa !36
  %5 = load float, ptr %3, align 4, !tbaa !36
  call void @llvm.lifetime.end.p0(i64 4, ptr %3) #9
  ret float %5
}

; Function Attrs: inlinehint nounwind uwtable
define internal i32 @half2float(i16 noundef zeroext %0, ptr noundef %1) #6 {
  %3 = alloca i16, align 2
  %4 = alloca ptr, align 8
  %5 = alloca i32, align 4
  store i16 %0, ptr %3, align 2, !tbaa !44
  store ptr %1, ptr %4, align 8, !tbaa !137
  call void @llvm.lifetime.start.p0(i64 4, ptr %5) #9
  %6 = load ptr, ptr %4, align 8, !tbaa !137
  %7 = getelementptr inbounds nuw %struct.Half2FloatTables, ptr %6, i32 0, i32 0
  %8 = load ptr, ptr %4, align 8, !tbaa !137
  %9 = getelementptr inbounds nuw %struct.Half2FloatTables, ptr %8, i32 0, i32 2
  %10 = load i16, ptr %3, align 2, !tbaa !44
  %11 = zext i16 %10 to i32
  %12 = ashr i32 %11, 10
  %13 = sext i32 %12 to i64
  %14 = getelementptr inbounds [64 x i16], ptr %9, i64 0, i64 %13
  %15 = load i16, ptr %14, align 2, !tbaa !44
  %16 = zext i16 %15 to i32
  %17 = load i16, ptr %3, align 2, !tbaa !44
  %18 = zext i16 %17 to i32
  %19 = and i32 %18, 1023
  %20 = add nsw i32 %16, %19
  %21 = sext i32 %20 to i64
  %22 = getelementptr inbounds [3072 x i32], ptr %7, i64 0, i64 %21
  %23 = load i32, ptr %22, align 4, !tbaa !30
  %24 = load ptr, ptr %4, align 8, !tbaa !137
  %25 = getelementptr inbounds nuw %struct.Half2FloatTables, ptr %24, i32 0, i32 1
  %26 = load i16, ptr %3, align 2, !tbaa !44
  %27 = zext i16 %26 to i32
  %28 = ashr i32 %27, 10
  %29 = sext i32 %28 to i64
  %30 = getelementptr inbounds [64 x i32], ptr %25, i64 0, i64 %29
  %31 = load i32, ptr %30, align 4, !tbaa !30
  %32 = add i32 %23, %31
  store i32 %32, ptr %5, align 4, !tbaa !30
  %33 = load i32, ptr %5, align 4, !tbaa !30
  call void @llvm.lifetime.end.p0(i64 4, ptr %5) #9
  ret i32 %33
}

; Function Attrs: alwaysinline nounwind willreturn memory(none) uwtable
define internal zeroext i16 @av_bswap16(i16 noundef zeroext %0) #4 {
  %2 = alloca i16, align 2
  store i16 %0, ptr %2, align 2, !tbaa !44
  %3 = load i16, ptr %2, align 2, !tbaa !44
  %4 = zext i16 %3 to i32
  %5 = ashr i32 %4, 8
  %6 = load i16, ptr %2, align 2, !tbaa !44
  %7 = zext i16 %6 to i32
  %8 = shl i32 %7, 8
  %9 = or i32 %5, %8
  %10 = trunc i32 %9 to i16
  store i16 %10, ptr %2, align 2, !tbaa !44
  %11 = load i16, ptr %2, align 2, !tbaa !44
  ret i16 %11
}

; Function Attrs: alwaysinline nounwind uwtable
define internal void @planar_rgbf16_to_y(ptr noundef %0, ptr noundef %1, i32 noundef %2, i32 noundef %3, ptr noundef %4, ptr noundef %5) #3 {
  %7 = alloca ptr, align 8
  %8 = alloca ptr, align 8
  %9 = alloca i32, align 4
  %10 = alloca i32, align 4
  %11 = alloca ptr, align 8
  %12 = alloca ptr, align 8
  %13 = alloca i32, align 4
  %14 = alloca i32, align 4
  %15 = alloca i32, align 4
  %16 = alloca i32, align 4
  %17 = alloca i32, align 4
  %18 = alloca i32, align 4
  %19 = alloca i32, align 4
  store ptr %0, ptr %7, align 8, !tbaa !34
  store ptr %1, ptr %8, align 8, !tbaa !47
  store i32 %2, ptr %9, align 4, !tbaa !30
  store i32 %3, ptr %10, align 4, !tbaa !30
  store ptr %4, ptr %11, align 8, !tbaa !35
  store ptr %5, ptr %12, align 8, !tbaa !137
  call void @llvm.lifetime.start.p0(i64 4, ptr %13) #9
  call void @llvm.lifetime.start.p0(i64 4, ptr %14) #9
  %20 = load ptr, ptr %11, align 8, !tbaa !35
  %21 = getelementptr inbounds i32, ptr %20, i64 0
  %22 = load i32, ptr %21, align 4, !tbaa !30
  store i32 %22, ptr %14, align 4, !tbaa !30
  call void @llvm.lifetime.start.p0(i64 4, ptr %15) #9
  %23 = load ptr, ptr %11, align 8, !tbaa !35
  %24 = getelementptr inbounds i32, ptr %23, i64 1
  %25 = load i32, ptr %24, align 4, !tbaa !30
  store i32 %25, ptr %15, align 4, !tbaa !30
  call void @llvm.lifetime.start.p0(i64 4, ptr %16) #9
  %26 = load ptr, ptr %11, align 8, !tbaa !35
  %27 = getelementptr inbounds i32, ptr %26, i64 2
  %28 = load i32, ptr %27, align 4, !tbaa !30
  store i32 %28, ptr %16, align 4, !tbaa !30
  store i32 0, ptr %13, align 4, !tbaa !30
  br label %29

29:                                               ; preds = %152, %6
  %30 = load i32, ptr %13, align 4, !tbaa !30
  %31 = load i32, ptr %9, align 4, !tbaa !30
  %32 = icmp slt i32 %30, %31
  br i1 %32, label %33, label %155

33:                                               ; preds = %29
  call void @llvm.lifetime.start.p0(i64 4, ptr %17) #9
  %34 = load i32, ptr %10, align 4, !tbaa !30
  %35 = icmp ne i32 %34, 0
  br i1 %35, label %36, label %47

36:                                               ; preds = %33
  %37 = load ptr, ptr %8, align 8, !tbaa !47
  %38 = getelementptr inbounds ptr, ptr %37, i64 0
  %39 = load ptr, ptr %38, align 8, !tbaa !34
  %40 = load i32, ptr %13, align 4, !tbaa !30
  %41 = mul nsw i32 2, %40
  %42 = sext i32 %41 to i64
  %43 = getelementptr inbounds i8, ptr %39, i64 %42
  %44 = load i16, ptr %43, align 1, !tbaa !36
  %45 = call zeroext i16 @av_bswap16(i16 noundef zeroext %44) #10
  %46 = zext i16 %45 to i32
  br label %57

47:                                               ; preds = %33
  %48 = load ptr, ptr %8, align 8, !tbaa !47
  %49 = getelementptr inbounds ptr, ptr %48, i64 0
  %50 = load ptr, ptr %49, align 8, !tbaa !34
  %51 = load i32, ptr %13, align 4, !tbaa !30
  %52 = mul nsw i32 2, %51
  %53 = sext i32 %52 to i64
  %54 = getelementptr inbounds i8, ptr %50, i64 %53
  %55 = load i16, ptr %54, align 1, !tbaa !36
  %56 = zext i16 %55 to i32
  br label %57

57:                                               ; preds = %47, %36
  %58 = phi i32 [ %46, %36 ], [ %56, %47 ]
  %59 = trunc i32 %58 to i16
  %60 = load ptr, ptr %12, align 8, !tbaa !137
  %61 = call i32 @half2float(i16 noundef zeroext %59, ptr noundef %60)
  %62 = call nsz float @av_int2float(i32 noundef %61)
  %63 = fmul nsz float 6.553500e+04, %62
  %64 = call nsz float @av_clipf_c(float noundef %63, float noundef 0.000000e+00, float noundef 6.553500e+04) #10
  %65 = call i64 @llvm.lrint.i64.f32(float %64)
  %66 = trunc i64 %65 to i32
  store i32 %66, ptr %17, align 4, !tbaa !30
  call void @llvm.lifetime.start.p0(i64 4, ptr %18) #9
  %67 = load i32, ptr %10, align 4, !tbaa !30
  %68 = icmp ne i32 %67, 0
  br i1 %68, label %69, label %80

69:                                               ; preds = %57
  %70 = load ptr, ptr %8, align 8, !tbaa !47
  %71 = getelementptr inbounds ptr, ptr %70, i64 1
  %72 = load ptr, ptr %71, align 8, !tbaa !34
  %73 = load i32, ptr %13, align 4, !tbaa !30
  %74 = mul nsw i32 2, %73
  %75 = sext i32 %74 to i64
  %76 = getelementptr inbounds i8, ptr %72, i64 %75
  %77 = load i16, ptr %76, align 1, !tbaa !36
  %78 = call zeroext i16 @av_bswap16(i16 noundef zeroext %77) #10
  %79 = zext i16 %78 to i32
  br label %90

80:                                               ; preds = %57
  %81 = load ptr, ptr %8, align 8, !tbaa !47
  %82 = getelementptr inbounds ptr, ptr %81, i64 1
  %83 = load ptr, ptr %82, align 8, !tbaa !34
  %84 = load i32, ptr %13, align 4, !tbaa !30
  %85 = mul nsw i32 2, %84
  %86 = sext i32 %85 to i64
  %87 = getelementptr inbounds i8, ptr %83, i64 %86
  %88 = load i16, ptr %87, align 1, !tbaa !36
  %89 = zext i16 %88 to i32
  br label %90

90:                                               ; preds = %80, %69
  %91 = phi i32 [ %79, %69 ], [ %89, %80 ]
  %92 = trunc i32 %91 to i16
  %93 = load ptr, ptr %12, align 8, !tbaa !137
  %94 = call i32 @half2float(i16 noundef zeroext %92, ptr noundef %93)
  %95 = call nsz float @av_int2float(i32 noundef %94)
  %96 = fmul nsz float 6.553500e+04, %95
  %97 = call nsz float @av_clipf_c(float noundef %96, float noundef 0.000000e+00, float noundef 6.553500e+04) #10
  %98 = call i64 @llvm.lrint.i64.f32(float %97)
  %99 = trunc i64 %98 to i32
  store i32 %99, ptr %18, align 4, !tbaa !30
  call void @llvm.lifetime.start.p0(i64 4, ptr %19) #9
  %100 = load i32, ptr %10, align 4, !tbaa !30
  %101 = icmp ne i32 %100, 0
  br i1 %101, label %102, label %113

102:                                              ; preds = %90
  %103 = load ptr, ptr %8, align 8, !tbaa !47
  %104 = getelementptr inbounds ptr, ptr %103, i64 2
  %105 = load ptr, ptr %104, align 8, !tbaa !34
  %106 = load i32, ptr %13, align 4, !tbaa !30
  %107 = mul nsw i32 2, %106
  %108 = sext i32 %107 to i64
  %109 = getelementptr inbounds i8, ptr %105, i64 %108
  %110 = load i16, ptr %109, align 1, !tbaa !36
  %111 = call zeroext i16 @av_bswap16(i16 noundef zeroext %110) #10
  %112 = zext i16 %111 to i32
  br label %123

113:                                              ; preds = %90
  %114 = load ptr, ptr %8, align 8, !tbaa !47
  %115 = getelementptr inbounds ptr, ptr %114, i64 2
  %116 = load ptr, ptr %115, align 8, !tbaa !34
  %117 = load i32, ptr %13, align 4, !tbaa !30
  %118 = mul nsw i32 2, %117
  %119 = sext i32 %118 to i64
  %120 = getelementptr inbounds i8, ptr %116, i64 %119
  %121 = load i16, ptr %120, align 1, !tbaa !36
  %122 = zext i16 %121 to i32
  br label %123

123:                                              ; preds = %113, %102
  %124 = phi i32 [ %112, %102 ], [ %122, %113 ]
  %125 = trunc i32 %124 to i16
  %126 = load ptr, ptr %12, align 8, !tbaa !137
  %127 = call i32 @half2float(i16 noundef zeroext %125, ptr noundef %126)
  %128 = call nsz float @av_int2float(i32 noundef %127)
  %129 = fmul nsz float 6.553500e+04, %128
  %130 = call nsz float @av_clipf_c(float noundef %129, float noundef 0.000000e+00, float noundef 6.553500e+04) #10
  %131 = call i64 @llvm.lrint.i64.f32(float %130)
  %132 = trunc i64 %131 to i32
  store i32 %132, ptr %19, align 4, !tbaa !30
  %133 = load i32, ptr %14, align 4, !tbaa !30
  %134 = load i32, ptr %19, align 4, !tbaa !30
  %135 = mul nsw i32 %133, %134
  %136 = load i32, ptr %15, align 4, !tbaa !30
  %137 = load i32, ptr %17, align 4, !tbaa !30
  %138 = mul nsw i32 %136, %137
  %139 = add nsw i32 %135, %138
  %140 = load i32, ptr %16, align 4, !tbaa !30
  %141 = load i32, ptr %18, align 4, !tbaa !30
  %142 = mul nsw i32 %140, %141
  %143 = add nsw i32 %139, %142
  %144 = add nsw i32 %143, 134234112
  %145 = ashr i32 %144, 15
  %146 = trunc i32 %145 to i16
  %147 = load ptr, ptr %7, align 8, !tbaa !34
  %148 = load i32, ptr %13, align 4, !tbaa !30
  %149 = mul nsw i32 2, %148
  %150 = sext i32 %149 to i64
  %151 = getelementptr inbounds i8, ptr %147, i64 %150
  store i16 %146, ptr %151, align 1, !tbaa !36
  call void @llvm.lifetime.end.p0(i64 4, ptr %19) #9
  call void @llvm.lifetime.end.p0(i64 4, ptr %18) #9
  call void @llvm.lifetime.end.p0(i64 4, ptr %17) #9
  br label %152

152:                                              ; preds = %123
  %153 = load i32, ptr %13, align 4, !tbaa !30
  %154 = add nsw i32 %153, 1
  store i32 %154, ptr %13, align 4, !tbaa !30
  br label %29, !llvm.loop !157

155:                                              ; preds = %29
  call void @llvm.lifetime.end.p0(i64 4, ptr %16) #9
  call void @llvm.lifetime.end.p0(i64 4, ptr %15) #9
  call void @llvm.lifetime.end.p0(i64 4, ptr %14) #9
  call void @llvm.lifetime.end.p0(i64 4, ptr %13) #9
  ret void
}

; Function Attrs: nounwind uwtable
define internal void @planar_rgbf16le_to_y(ptr noundef %0, ptr noundef %1, i32 noundef %2, ptr noundef %3, ptr noundef %4) #2 {
  %6 = alloca ptr, align 8
  %7 = alloca ptr, align 8
  %8 = alloca i32, align 4
  %9 = alloca ptr, align 8
  %10 = alloca ptr, align 8
  store ptr %0, ptr %6, align 8, !tbaa !34
  store ptr %1, ptr %7, align 8, !tbaa !47
  store i32 %2, ptr %8, align 4, !tbaa !30
  store ptr %3, ptr %9, align 8, !tbaa !35
  store ptr %4, ptr %10, align 8, !tbaa !31
  %11 = load ptr, ptr %6, align 8, !tbaa !34
  %12 = load ptr, ptr %7, align 8, !tbaa !47
  %13 = load i32, ptr %8, align 4, !tbaa !30
  %14 = load ptr, ptr %9, align 8, !tbaa !35
  %15 = load ptr, ptr %10, align 8, !tbaa !31
  call void @planar_rgbf16_to_y(ptr noundef %11, ptr noundef %12, i32 noundef %13, i32 noundef 0, ptr noundef %14, ptr noundef %15)
  ret void
}