; Function Attrs: nofree norecurse nosync nounwind memory(read, argmem: readwrite, inaccessiblemem: none) uwtable
define internal void @planar_rgbf16le_to_y(ptr noundef writeonly captures(none) %0, ptr noundef readonly captures(none) %1, i32 noundef %2, ptr noundef readonly captures(none) %3, ptr noundef readonly captures(none) %4) #2 {
  %6 = load i32, ptr %3, align 4, !tbaa !42
  %7 = getelementptr inbounds nuw i8, ptr %3, i64 4
  %8 = load i32, ptr %7, align 4, !tbaa !42
  %9 = getelementptr inbounds nuw i8, ptr %3, i64 8
  %10 = load i32, ptr %9, align 4, !tbaa !42
  %11 = icmp sgt i32 %2, 0
  br i1 %11, label %.lr.ph, label %planar_rgbf16_to_y.exit

.lr.ph:                                           ; preds = %5
  %12 = getelementptr inbounds nuw i8, ptr %4, i64 12544
  %13 = getelementptr inbounds nuw i8, ptr %4, i64 12288
  %14 = getelementptr inbounds nuw i8, ptr %1, i64 8
  %15 = getelementptr inbounds nuw i8, ptr %1, i64 16
  %wide.trip.count = zext nneg i32 %2 to i64
  br label %16

16:                                               ; preds = %.lr.ph, %16
  %indvars.iv = phi i64 [ 0, %.lr.ph ], [ %indvars.iv.next, %16 ]
  %17 = load ptr, ptr %1, align 8, !tbaa !51
  %18 = shl nuw nsw i64 %indvars.iv, 1
  %19 = getelementptr inbounds nuw i8, ptr %17, i64 %18
  %20 = load i16, ptr %19, align 1, !tbaa !34
  %21 = zext i16 %20 to i32
  %22 = lshr i32 %21, 10
  %23 = zext nneg i32 %22 to i64
  %24 = getelementptr inbounds nuw [64 x i16], ptr %12, i64 0, i64 %23
  %25 = load i16, ptr %24, align 2, !tbaa !43
  %26 = zext i16 %25 to i32
  %27 = and i32 %21, 1023
  %28 = add nuw nsw i32 %27, %26
  %29 = zext nneg i32 %28 to i64
  %30 = getelementptr inbounds nuw [3072 x i32], ptr %4, i64 0, i64 %29
  %31 = load i32, ptr %30, align 4, !tbaa !42
  %32 = getelementptr inbounds nuw [64 x i32], ptr %13, i64 0, i64 %23
  %33 = load i32, ptr %32, align 4, !tbaa !42
  %34 = add i32 %33, %31
  %35 = bitcast i32 %34 to float
  %36 = fmul nsz float %35, 6.553500e+04
  %37 = fcmp nsz ogt float %36, 0.000000e+00
  %38 = select nsz i1 %37, float %36, float 0.000000e+00
  %39 = fcmp nsz ogt float %38, 6.553500e+04
  %..i34.i = select nsz i1 %39, float 6.553500e+04, float %38
  %40 = tail call i64 @llvm.lrint.i64.f32(float %..i34.i)
  %41 = trunc i64 %40 to i32
  %42 = load ptr, ptr %14, align 8, !tbaa !51
  %43 = getelementptr inbounds nuw i8, ptr %42, i64 %18
  %44 = load i16, ptr %43, align 1, !tbaa !34
  %45 = zext i16 %44 to i32
  %46 = lshr i32 %45, 10
  %47 = zext nneg i32 %46 to i64
  %48 = getelementptr inbounds nuw [64 x i16], ptr %12, i64 0, i64 %47
  %49 = load i16, ptr %48, align 2, !tbaa !43
  %50 = zext i16 %49 to i32
  %51 = and i32 %45, 1023
  %52 = add nuw nsw i32 %51, %50
  %53 = zext nneg i32 %52 to i64
  %54 = getelementptr inbounds nuw [3072 x i32], ptr %4, i64 0, i64 %53
  %55 = load i32, ptr %54, align 4, !tbaa !42
  %56 = getelementptr inbounds nuw [64 x i32], ptr %13, i64 0, i64 %47
  %57 = load i32, ptr %56, align 4, !tbaa !42
  %58 = add i32 %57, %55
  %59 = bitcast i32 %58 to float
  %60 = fmul nsz float %59, 6.553500e+04
  %61 = fcmp nsz ogt float %60, 0.000000e+00
  %62 = select nsz i1 %61, float %60, float 0.000000e+00
  %63 = fcmp nsz ogt float %62, 6.553500e+04
  %..i33.i = select nsz i1 %63, float 6.553500e+04, float %62
  %64 = tail call i64 @llvm.lrint.i64.f32(float %..i33.i)
  %65 = trunc i64 %64 to i32
  %66 = load ptr, ptr %15, align 8, !tbaa !51
  %67 = getelementptr inbounds nuw i8, ptr %66, i64 %18
  %68 = load i16, ptr %67, align 1, !tbaa !34
  %69 = zext i16 %68 to i32
  %70 = lshr i32 %69, 10
  %71 = zext nneg i32 %70 to i64
  %72 = getelementptr inbounds nuw [64 x i16], ptr %12, i64 0, i64 %71
  %73 = load i16, ptr %72, align 2, !tbaa !43
  %74 = zext i16 %73 to i32
  %75 = and i32 %69, 1023
  %76 = add nuw nsw i32 %75, %74
  %77 = zext nneg i32 %76 to i64
  %78 = getelementptr inbounds nuw [3072 x i32], ptr %4, i64 0, i64 %77
  %79 = load i32, ptr %78, align 4, !tbaa !42
  %80 = getelementptr inbounds nuw [64 x i32], ptr %13, i64 0, i64 %71
  %81 = load i32, ptr %80, align 4, !tbaa !42
  %82 = add i32 %81, %79
  %83 = bitcast i32 %82 to float
  %84 = fmul nsz float %83, 6.553500e+04
  %85 = fcmp nsz ogt float %84, 0.000000e+00
  %86 = select nsz i1 %85, float %84, float 0.000000e+00
  %87 = fcmp nsz ogt float %86, 6.553500e+04
  %..i.i = select nsz i1 %87, float 6.553500e+04, float %86
  %88 = tail call i64 @llvm.lrint.i64.f32(float %..i.i)
  %89 = trunc i64 %88 to i32
  %90 = mul nsw i32 %6, %89
  %91 = mul nsw i32 %8, %41
  %92 = mul nsw i32 %10, %65
  %93 = add i32 %91, 134234112
  %94 = add i32 %93, %92
  %95 = add i32 %94, %90
  %96 = lshr i32 %95, 15
  %97 = trunc i32 %96 to i16
  %98 = getelementptr inbounds nuw i8, ptr %0, i64 %18
  store i16 %97, ptr %98, align 1, !tbaa !34
  %indvars.iv.next = add nuw nsw i64 %indvars.iv, 1
  %exitcond.not = icmp eq i64 %indvars.iv.next, %wide.trip.count
  br i1 %exitcond.not, label %planar_rgbf16_to_y.exit, label %16, !llvm.loop !96

planar_rgbf16_to_y.exit:                          ; preds = %16, %5
  ret void
}